; ModuleID = 'source-C-CXX/11/1579.c'
source_filename = "source-C-CXX/11/1579.c"
target datalayout = "e-m:e-p270:32:32-p271:32:32-p272:64:64-i64:64-f80:128-n8:16:32:64-S128"
target triple = "x86_64-pc-linux-gnu"

@main.a = internal global [16 x i32] zeroinitializer, align 16
@.str = private unnamed_addr constant [3 x i8] c"%d\00", align 1
@.str.1 = private unnamed_addr constant [4 x i8] c" %d\00", align 1
@.str.2 = private unnamed_addr constant [4 x i8] c"%d\0A\00", align 1

; Function Attrs: nofree nounwind sspstrong uwtable
define dso_local i32 @main() local_unnamed_addr #0 {
  %1 = tail call i32 (i8*, ...) @__isoc99_scanf(i8* getelementptr inbounds ([3 x i8], [3 x i8]* @.str, i64 0, i64 0), i32* getelementptr inbounds ([16 x i32], [16 x i32]* @main.a, i64 0, i64 0))
  %2 = icmp ne i32 %1, 0
  %3 = load i32, i32* getelementptr inbounds ([16 x i32], [16 x i32]* @main.a, i64 0, i64 0), align 16
  %4 = icmp ne i32 %3, -1
  %5 = select i1 %2, i1 %4, i1 false
  br i1 %5, label %6, label %50

6:                                                ; preds = %0, %15
  %7 = phi i64 [ %16, %15 ], [ 1, %0 ]
  %8 = getelementptr inbounds [16 x i32], [16 x i32]* @main.a, i64 0, i64 %7
  %9 = tail call i32 (i8*, ...) @__isoc99_scanf(i8* getelementptr inbounds ([4 x i8], [4 x i8]* @.str.1, i64 0, i64 0), i32* nonnull %8)
  %10 = load i32, i32* %8, align 4, !tbaa !5
  %11 = icmp ne i32 %10, 0
  %12 = add nuw nsw i64 %7, 1
  %13 = icmp ult i64 %7, 15
  %14 = select i1 %11, i1 %13, i1 false
  br i1 %14, label %15, label %17

15:                                               ; preds = %6, %42
  %16 = phi i64 [ %12, %6 ], [ 1, %42 ]
  br label %6, !llvm.loop !9

17:                                               ; preds = %6
  %18 = load i32, i32* getelementptr inbounds ([16 x i32], [16 x i32]* @main.a, i64 0, i64 0), align 16
  %19 = icmp eq i32 %18, 0
  br i1 %19, label %42, label %20

20:                                               ; preds = %17, %36
  %21 = phi i64 [ %38, %36 ], [ 0, %17 ]
  %22 = phi i32 [ %40, %36 ], [ %18, %17 ]
  %23 = phi i32 [ %37, %36 ], [ 0, %17 ]
  %24 = shl nsw i32 %22, 1
  br label %29

25:                                               ; preds = %29
  %26 = getelementptr inbounds [16 x i32], [16 x i32]* @main.a, i64 0, i64 %33
  %27 = load i32, i32* %26, align 4, !tbaa !5
  %28 = icmp eq i32 %27, 0
  br i1 %28, label %36, label %29, !llvm.loop !11

29:                                               ; preds = %20, %25
  %30 = phi i64 [ 0, %20 ], [ %33, %25 ]
  %31 = phi i32 [ %18, %20 ], [ %27, %25 ]
  %32 = icmp eq i32 %31, %24
  %33 = add nuw i64 %30, 1
  br i1 %32, label %34, label %25

34:                                               ; preds = %29
  %35 = add nsw i32 %23, 1
  br label %36

36:                                               ; preds = %25, %34
  %37 = phi i32 [ %35, %34 ], [ %23, %25 ]
  %38 = add nuw i64 %21, 1
  %39 = getelementptr inbounds [16 x i32], [16 x i32]* @main.a, i64 0, i64 %38
  %40 = load i32, i32* %39, align 4, !tbaa !5
  %41 = icmp eq i32 %40, 0
  br i1 %41, label %42, label %20, !llvm.loop !12

42:                                               ; preds = %36, %17
  %43 = phi i32 [ 0, %17 ], [ %37, %36 ]
  %44 = tail call i32 (i8*, ...) @printf(i8* nonnull dereferenceable(1) getelementptr inbounds ([4 x i8], [4 x i8]* @.str.2, i64 0, i64 0), i32 %43)
  %45 = tail call i32 (i8*, ...) @__isoc99_scanf(i8* getelementptr inbounds ([3 x i8], [3 x i8]* @.str, i64 0, i64 0), i32* getelementptr inbounds ([16 x i32], [16 x i32]* @main.a, i64 0, i64 0))
  %46 = icmp ne i32 %45, 0
  %47 = load i32, i32* getelementptr inbounds ([16 x i32], [16 x i32]* @main.a, i64 0, i64 0), align 16
  %48 = icmp ne i32 %47, -1
  %49 = select i1 %46, i1 %48, i1 false
  br i1 %49, label %15, label %50

50:                                               ; preds = %42, %0
  ret i32 0
}

; Function Attrs: nofree nounwind
declare noundef i32 @__isoc99_scanf(i8* nocapture noundef readonly, ...) local_unnamed_addr #1

; Function Attrs: nofree nounwind
declare noundef i32 @printf(i8* nocapture noundef readonly, ...) local_unnamed_addr #1


!llvm.module.flags = !{!0, !1, !2, !3}
!llvm.ident = !{!4}

!0 = !{i32 1, !"wchar_size", i32 4}
!1 = !{i32 7, !"PIC Level", i32 2}
!2 = !{i32 7, !"PIE Level", i32 2}
!3 = !{i32 7, !"uwtable", i32 1}
!4 = !{!"clang version 13.0.0"}
!5 = !{!6, !6, i64 0}
!6 = !{!"int", !7, i64 0}
!7 = !{!"omnipotent char", !8, i64 0}
!8 = !{!"Simple C/C++ TBAA"}
!9 = distinct !{!9, !10}
!10 = !{!"llvm.loop.mustprogress"}
!11 = distinct !{!11, !10}
!12 = distinct !{!12, !10}
